target datalayout = "e-m:e-p270:32:32-p271:32:32-p272:64:64-i64:64-i128:128-f80:128-n8:16:32:64-S128"
target triple = "x86_64-pc-linux-gnu"

; Function Attrs: mustprogress uwtable
define ptr @u_strpbrk_77(ptr noundef %0, ptr noundef %1) #0 {
  %3 = alloca ptr, align 8
  %4 = alloca ptr, align 8
  %5 = alloca ptr, align 8
  %6 = alloca i32, align 4
  %7 = alloca i32, align 4
  store ptr %0, ptr %4, align 8, !tbaa !3
  store ptr %1, ptr %5, align 8, !tbaa !3
  call void @llvm.lifetime.start.p0(i64 4, ptr %6) #7
  %8 = load ptr, ptr %4, align 8, !tbaa !3
  %9 = load ptr, ptr %5, align 8, !tbaa !3
  %10 = call noundef i32 @_ZL13_matchFromSetPKDsS0_a(ptr noundef %8, ptr noundef %9, i8 noundef signext 1)
  store i32 %10, ptr %6, align 4, !tbaa !8
  %11 = load i32, ptr %6, align 4, !tbaa !8
  %12 = icmp sge i32 %11, 0
  br i1 %12, label %13, label %18

13:                                               ; preds = %2
  %14 = load ptr, ptr %4, align 8, !tbaa !3
  %15 = load i32, ptr %6, align 4, !tbaa !8
  %16 = sext i32 %15 to i64
  %17 = getelementptr inbounds i16, ptr %14, i64 %16
  store ptr %17, ptr %3, align 8
  store i32 1, ptr %7, align 4
  br label %19

18:                                               ; preds = %2
  store ptr null, ptr %3, align 8
  store i32 1, ptr %7, align 4
  br label %19

19:                                               ; preds = %18, %13
  call void @llvm.lifetime.end.p0(i64 4, ptr %6) #7
  %20 = load ptr, ptr %3, align 8
  ret ptr %20
}

; Function Attrs: mustprogress uwtable
define i32 @u_strspn_77(ptr noundef %0, ptr noundef %1) #0 {
  %3 = alloca i32, align 4
  %4 = alloca ptr, align 8
  %5 = alloca ptr, align 8
  %6 = alloca i32, align 4
  %7 = alloca i32, align 4
  store ptr %0, ptr %4, align 8, !tbaa !3
  store ptr %1, ptr %5, align 8, !tbaa !3
  call void @llvm.lifetime.start.p0(i64 4, ptr %6) #7
  %8 = load ptr, ptr %4, align 8, !tbaa !3
  %9 = load ptr, ptr %5, align 8, !tbaa !3
  %10 = call noundef i32 @_ZL13_matchFromSetPKDsS0_a(ptr noundef %8, ptr noundef %9, i8 noundef signext 0)
  store i32 %10, ptr %6, align 4, !tbaa !8
  %11 = load i32, ptr %6, align 4, !tbaa !8
  %12 = icmp sge i32 %11, 0
  br i1 %12, label %13, label %15

13:                                               ; preds = %2
  %14 = load i32, ptr %6, align 4, !tbaa !8
  store i32 %14, ptr %3, align 4
  store i32 1, ptr %7, align 4
  br label %19

15:                                               ; preds = %2
  %16 = load i32, ptr %6, align 4, !tbaa !8
  %17 = sub nsw i32 0, %16
  %18 = sub nsw i32 %17, 1
  store i32 %18, ptr %3, align 4
  store i32 1, ptr %7, align 4
  br label %19

19:                                               ; preds = %15, %13
  call void @llvm.lifetime.end.p0(i64 4, ptr %6) #7
  %20 = load i32, ptr %3, align 4
  ret i32 %20
}

; Function Attrs: mustprogress uwtable
define ptr @u_strtok_r_77(ptr noundef %0, ptr noundef %1, ptr noundef %2) #0 {
  %4 = alloca ptr, align 8
  %5 = alloca ptr, align 8
  %6 = alloca ptr, align 8
  %7 = alloca ptr, align 8
  %8 = alloca ptr, align 8
  %9 = alloca ptr, align 8
  %10 = alloca i32, align 4
  %11 = alloca i32, align 4
  store ptr %0, ptr %5, align 8, !tbaa !3
  store ptr %1, ptr %6, align 8, !tbaa !3
  store ptr %2, ptr %7, align 8, !tbaa !40
  call void @llvm.lifetime.start.p0(i64 8, ptr %8) #7
  call void @llvm.lifetime.start.p0(i64 8, ptr %9) #7
  call void @llvm.lifetime.start.p0(i64 4, ptr %10) #7
  %12 = load ptr, ptr %5, align 8, !tbaa !3
  %13 = icmp ne ptr %12, null
  br i1 %13, label %14, label %18

14:                                               ; preds = %3
  %15 = load ptr, ptr %5, align 8, !tbaa !3
  store ptr %15, ptr %8, align 8, !tbaa !3
  %16 = load ptr, ptr %5, align 8, !tbaa !3
  %17 = load ptr, ptr %7, align 8, !tbaa !40
  store ptr %16, ptr %17, align 8, !tbaa !3
  br label %27

18:                                               ; preds = %3
  %19 = load ptr, ptr %7, align 8, !tbaa !40
  %20 = load ptr, ptr %19, align 8, !tbaa !3
  %21 = icmp ne ptr %20, null
  br i1 %21, label %22, label %25

22:                                               ; preds = %18
  %23 = load ptr, ptr %7, align 8, !tbaa !40
  %24 = load ptr, ptr %23, align 8, !tbaa !3
  store ptr %24, ptr %8, align 8, !tbaa !3
  br label %26

25:                                               ; preds = %18
  store ptr null, ptr %4, align 8
  store i32 1, ptr %11, align 4
  br label %62

26:                                               ; preds = %22
  br label %27

27:                                               ; preds = %26, %14
  %28 = load ptr, ptr %8, align 8, !tbaa !3
  %29 = load ptr, ptr %6, align 8, !tbaa !3
  %30 = call i32 @u_strspn_77(ptr noundef %28, ptr noundef %29)
  store i32 %30, ptr %10, align 4, !tbaa !8
  %31 = load ptr, ptr %8, align 8, !tbaa !3
  %32 = load i32, ptr %10, align 4, !tbaa !8
  %33 = zext i32 %32 to i64
  %34 = getelementptr inbounds nuw i16, ptr %31, i64 %33
  store ptr %34, ptr %8, align 8, !tbaa !3
  %35 = load ptr, ptr %8, align 8, !tbaa !3
  %36 = load i16, ptr %35, align 2, !tbaa !10
  %37 = icmp ne i16 %36, 0
  br i1 %37, label %38, label %59

38:                                               ; preds = %27
  %39 = load ptr, ptr %8, align 8, !tbaa !3
  %40 = load ptr, ptr %6, align 8, !tbaa !3
  %41 = call ptr @u_strpbrk_77(ptr noundef %39, ptr noundef %40)
  store ptr %41, ptr %9, align 8, !tbaa !3
  %42 = load ptr, ptr %9, align 8, !tbaa !3
  %43 = icmp ne ptr %42, null
  br i1 %43, label %44, label %50

44:                                               ; preds = %38
  %45 = load ptr, ptr %9, align 8, !tbaa !3
  %46 = getelementptr inbounds nuw i16, ptr %45, i32 1
  store ptr %46, ptr %9, align 8, !tbaa !3
  store i16 0, ptr %45, align 2, !tbaa !10
  %47 = load ptr, ptr %9, align 8, !tbaa !3
  %48 = load ptr, ptr %7, align 8, !tbaa !40
  store ptr %47, ptr %48, align 8, !tbaa !3
  %49 = load ptr, ptr %8, align 8, !tbaa !3
  store ptr %49, ptr %4, align 8
  store i32 1, ptr %11, align 4
  br label %62

50:                                               ; preds = %38
  %51 = load ptr, ptr %7, align 8, !tbaa !40
  %52 = load ptr, ptr %51, align 8, !tbaa !3
  %53 = icmp ne ptr %52, null
  br i1 %53, label %54, label %57

54:                                               ; preds = %50
  %55 = load ptr, ptr %7, align 8, !tbaa !40
  store ptr null, ptr %55, align 8, !tbaa !3
  %56 = load ptr, ptr %8, align 8, !tbaa !3
  store ptr %56, ptr %4, align 8
  store i32 1, ptr %11, align 4
  br label %62

57:                                               ; preds = %50
  br label %58

58:                                               ; preds = %57
  br label %61

59:                                               ; preds = %27
  %60 = load ptr, ptr %7, align 8, !tbaa !40
  store ptr null, ptr %60, align 8, !tbaa !3
  br label %61

61:                                               ; preds = %59, %58
  store ptr null, ptr %4, align 8
  store i32 1, ptr %11, align 4
  br label %62

62:                                               ; preds = %61, %54, %44, %25
  call void @llvm.lifetime.end.p0(i64 4, ptr %10) #7
  call void @llvm.lifetime.end.p0(i64 8, ptr %9) #7
  call void @llvm.lifetime.end.p0(i64 8, ptr %8) #7
  %63 = load ptr, ptr %4, align 8
  ret ptr %63
}