; Function Attrs: mustprogress nofree norecurse nosync nounwind willreturn memory(readwrite, inaccessiblemem: none) uwtable
define noundef ptr @u_strtok_r_77(ptr noundef %0, ptr noundef readonly captures(none) %1, ptr noundef captures(none) %2) local_unnamed_addr #4 {
  %.not = icmp eq ptr %0, null
  br i1 %.not, label %5, label %4

4:                                                ; preds = %3
  store ptr %0, ptr %2, align 8, !tbaa !32
  br label %7

5:                                                ; preds = %3
  %6 = load ptr, ptr %2, align 8, !tbaa !32
  %.not26 = icmp eq ptr %6, null
  br i1 %.not26, label %20, label %7

7:                                                ; preds = %5, %4
  %8 = phi ptr [ %0, %4 ], [ %6, %5 ]
  %9 = tail call fastcc noundef i32 @_ZL13_matchFromSetPKDsS0_a(ptr noundef nonnull readonly %8, ptr noundef readonly %1, i8 noundef signext 0)
  %.lobit.i = ashr i32 %9, 31
  %.0.i = xor i32 %.lobit.i, %9
  %10 = zext nneg i32 %.0.i to i64
  %11 = getelementptr inbounds nuw i16, ptr %8, i64 %10
  %12 = load i16, ptr %11, align 2, !tbaa !3
  %.not27 = icmp eq i16 %12, 0
  br i1 %.not27, label %.sink.split, label %13

13:                                               ; preds = %7
  %14 = tail call fastcc noundef i32 @_ZL13_matchFromSetPKDsS0_a(ptr noundef nonnull readonly %11, ptr noundef readonly %1, i8 noundef signext 1)
  %15 = icmp slt i32 %14, 0
  br i1 %15, label %.sink.split, label %16

16:                                               ; preds = %13
  %17 = zext nneg i32 %14 to i64
  %18 = getelementptr inbounds nuw i16, ptr %11, i64 %17
  %19 = getelementptr inbounds nuw i8, ptr %18, i64 2
  store i16 0, ptr %18, align 2, !tbaa !3
  br label %.sink.split

.sink.split:                                      ; preds = %7, %13, %16
  %.sink = phi ptr [ %19, %16 ], [ null, %13 ], [ null, %7 ]
  %.0.ph = phi ptr [ %11, %16 ], [ %11, %13 ], [ null, %7 ]
  store ptr %.sink, ptr %2, align 8, !tbaa !32
  br label %20

20:                                               ; preds = %.sink.split, %5
  %.0 = phi ptr [ null, %5 ], [ %.0.ph, %.sink.split ]
  ret ptr %.0
}